; ModuleID = '31/1653.c'
source_filename = "31/1653.c"
target datalayout = "e-m:e-p270:32:32-p271:32:32-p272:64:64-i64:64-f80:128-n8:16:32:64-S128"
target triple = "x86_64-pc-linux-gnu"

%struct.stu = type { [1000 x i8], %struct.stu* }

@n = common dso_local global i32 0, align 4
@.str = private unnamed_addr constant [4 x i8] c"end\00", align 1
@m = common dso_local global i32 0, align 4
@t = common dso_local global i32 0, align 4
@i = common dso_local global i32 0, align 4
@.str.1 = private unnamed_addr constant [4 x i8] c"%s\0A\00", align 1

; Function Attrs: noinline nounwind uwtable
define dso_local %struct.stu* @creat() #0 {
  %1 = alloca %struct.stu*, align 8
  %2 = alloca %struct.stu*, align 8
  %3 = alloca %struct.stu*, align 8
  store i32 0, i32* @n, align 4
  %4 = call noalias i8* @malloc(i64 100) #4
  %5 = bitcast i8* %4 to %struct.stu*
  store %struct.stu* %5, %struct.stu** %3, align 8
  store %struct.stu* %5, %struct.stu** %2, align 8
  %6 = load %struct.stu*, %struct.stu** %2, align 8
  %7 = getelementptr inbounds %struct.stu, %struct.stu* %6, i32 0, i32 0
  %8 = getelementptr inbounds [1000 x i8], [1000 x i8]* %7, i64 0, i64 0
  %9 = call i32 (i8*, ...) bitcast (i32 (...)* @gets to i32 (i8*, ...)*)(i8* %8)
  br label %10

10:                                               ; preds = %27, %0
  %11 = load %struct.stu*, %struct.stu** %2, align 8
  %12 = getelementptr inbounds %struct.stu, %struct.stu* %11, i32 0, i32 0
  %13 = getelementptr inbounds [1000 x i8], [1000 x i8]* %12, i64 0, i64 0
  %14 = call i32 @strcmp(i8* %13, i8* getelementptr inbounds ([4 x i8], [4 x i8]* @.str, i64 0, i64 0)) #5
  %15 = icmp ne i32 %14, 0
  br i1 %15, label %16, label %35

16:                                               ; preds = %10
  %17 = load i32, i32* @n, align 4
  %18 = add nsw i32 %17, 1
  store i32 %18, i32* @n, align 4
  %19 = load i32, i32* @n, align 4
  %20 = icmp eq i32 %19, 1
  br i1 %20, label %21, label %23

21:                                               ; preds = %16
  %22 = load %struct.stu*, %struct.stu** %2, align 8
  store %struct.stu* %22, %struct.stu** %1, align 8
  br label %27

23:                                               ; preds = %16
  %24 = load %struct.stu*, %struct.stu** %2, align 8
  %25 = load %struct.stu*, %struct.stu** %3, align 8
  %26 = getelementptr inbounds %struct.stu, %struct.stu* %25, i32 0, i32 1
  store %struct.stu* %24, %struct.stu** %26, align 8
  br label %27

27:                                               ; preds = %23, %21
  %28 = load %struct.stu*, %struct.stu** %2, align 8
  store %struct.stu* %28, %struct.stu** %3, align 8
  %29 = call noalias i8* @malloc(i64 100) #4
  %30 = bitcast i8* %29 to %struct.stu*
  store %struct.stu* %30, %struct.stu** %2, align 8
  %31 = load %struct.stu*, %struct.stu** %2, align 8
  %32 = getelementptr inbounds %struct.stu, %struct.stu* %31, i32 0, i32 0
  %33 = getelementptr inbounds [1000 x i8], [1000 x i8]* %32, i64 0, i64 0
  %34 = call i32 (i8*, ...) bitcast (i32 (...)* @gets to i32 (i8*, ...)*)(i8* %33)
  br label %10

35:                                               ; preds = %10
  %36 = load %struct.stu*, %struct.stu** %3, align 8
  %37 = getelementptr inbounds %struct.stu, %struct.stu* %36, i32 0, i32 1
  store %struct.stu* null, %struct.stu** %37, align 8
  %38 = load %struct.stu*, %struct.stu** %1, align 8
  ret %struct.stu* %38
}

; Function Attrs: nounwind
declare dso_local noalias i8* @malloc(i64) #1

declare dso_local i32 @gets(...) #2

; Function Attrs: nounwind readonly
declare dso_local i32 @strcmp(i8*, i8*) #3

; Function Attrs: noinline nounwind uwtable
define dso_local void @print(%struct.stu* %0) #0 {
  %2 = alloca %struct.stu*, align 8
  %3 = alloca %struct.stu*, align 8
  %4 = alloca %struct.stu*, align 8
  store %struct.stu* %0, %struct.stu** %2, align 8
  %5 = load i32, i32* @n, align 4
  store i32 %5, i32* @m, align 4
  %6 = load i32, i32* @n, align 4
  store i32 %6, i32* @t, align 4
  store i32 1, i32* @i, align 4
  br label %7

7:                                                ; preds = %37, %1
  %8 = load i32, i32* @n, align 4
  %9 = icmp sgt i32 %8, 0
  br i1 %9, label %10, label %40

10:                                               ; preds = %7
  br label %11

11:                                               ; preds = %22, %10
  %12 = load i32, i32* @n, align 4
  %13 = icmp sgt i32 %12, 0
  br i1 %13, label %14, label %28

14:                                               ; preds = %11
  %15 = load i32, i32* @n, align 4
  %16 = load i32, i32* @t, align 4
  %17 = icmp eq i32 %15, %16
  br i1 %17, label %18, label %20

18:                                               ; preds = %14
  %19 = load %struct.stu*, %struct.stu** %2, align 8
  store %struct.stu* %19, %struct.stu** %3, align 8
  store %struct.stu* %19, %struct.stu** %4, align 8
  br label %22

20:                                               ; preds = %14
  %21 = load %struct.stu*, %struct.stu** %3, align 8
  store %struct.stu* %21, %struct.stu** %4, align 8
  br label %22

22:                                               ; preds = %20, %18
  %23 = load %struct.stu*, %struct.stu** %3, align 8
  %24 = getelementptr inbounds %struct.stu, %struct.stu* %23, i32 0, i32 1
  %25 = load %struct.stu*, %struct.stu** %24, align 8
  store %struct.stu* %25, %struct.stu** %3, align 8
  %26 = load i32, i32* @n, align 4
  %27 = sub nsw i32 %26, 1
  store i32 %27, i32* @n, align 4
  br label %11

28:                                               ; preds = %11
  %29 = load %struct.stu*, %struct.stu** %4, align 8
  %30 = getelementptr inbounds %struct.stu, %struct.stu* %29, i32 0, i32 0
  %31 = getelementptr inbounds [1000 x i8], [1000 x i8]* %30, i64 0, i64 0
  %32 = call i32 (i8*, ...) @printf(i8* getelementptr inbounds ([4 x i8], [4 x i8]* @.str.1, i64 0, i64 0), i8* %31)
  %33 = load i32, i32* @m, align 4
  %34 = load i32, i32* @i, align 4
  %35 = sub nsw i32 %33, %34
  store i32 %35, i32* @n, align 4
  %36 = load i32, i32* @n, align 4
  store i32 %36, i32* @t, align 4
  br label %37

37:                                               ; preds = %28
  %38 = load i32, i32* @i, align 4
  %39 = add nsw i32 %38, 1
  store i32 %39, i32* @i, align 4
  br label %7

40:                                               ; preds = %7
  ret void
}

declare dso_local i32 @printf(i8*, ...) #2

; Function Attrs: noinline nounwind uwtable
define dso_local void @main() #0 {
  %1 = alloca %struct.stu*, align 8
  %2 = call %struct.stu* @creat()
  store %struct.stu* %2, %struct.stu** %1, align 8
  %3 = load %struct.stu*, %struct.stu** %1, align 8
  call void @print(%struct.stu* %3)
  ret void
}


!llvm.module.flags = !{!0}
!llvm.ident = !{!1}

!0 = !{i32 1, !"wchar_size", i32 4}
!1 = !{!"clang version 10.0.0-4ubuntu1 "}
